target datalayout = "e-m:e-p270:32:32-p271:32:32-p272:64:64-i64:64-i128:128-f80:128-n8:16:32:64-S128"
target triple = "x86_64-pc-linux-gnu"

; Function Attrs: nounwind uwtable
define i32 @ffurl_close(ptr noundef %0) #1 {
  %2 = alloca ptr, align 8
  store ptr %0, ptr %2, align 8, !tbaa !22
  %3 = call i32 @ffurl_closep(ptr noundef %2)
  ret i32 %3
}

; Function Attrs: nounwind uwtable
define i32 @ffio_open_whitelist(ptr noundef %0, ptr noundef %1, i32 noundef %2, ptr noundef %3, ptr noundef %4, ptr noundef %5, ptr noundef %6) #1 {
  %8 = alloca i32, align 4
  %9 = alloca ptr, align 8
  %10 = alloca ptr, align 8
  %11 = alloca i32, align 4
  %12 = alloca ptr, align 8
  %13 = alloca ptr, align 8
  %14 = alloca ptr, align 8
  %15 = alloca ptr, align 8
  %16 = alloca ptr, align 8
  %17 = alloca i32, align 4
  %18 = alloca i32, align 4
  store ptr %0, ptr %9, align 8, !tbaa !51
  store ptr %1, ptr %10, align 8, !tbaa !20
  store i32 %2, ptr %11, align 4, !tbaa !21
  store ptr %3, ptr %12, align 8, !tbaa !69
  store ptr %4, ptr %13, align 8, !tbaa !28
  store ptr %5, ptr %14, align 8, !tbaa !20
  store ptr %6, ptr %15, align 8, !tbaa !20
  call void @llvm.lifetime.start.p0(i64 8, ptr %16) #10
  call void @llvm.lifetime.start.p0(i64 4, ptr %17) #10
  %19 = load ptr, ptr %9, align 8, !tbaa !51
  store ptr null, ptr %19, align 8, !tbaa !8
  %20 = load ptr, ptr %10, align 8, !tbaa !20
  %21 = load i32, ptr %11, align 4, !tbaa !21
  %22 = load ptr, ptr %12, align 8, !tbaa !69
  %23 = load ptr, ptr %13, align 8, !tbaa !28
  %24 = load ptr, ptr %14, align 8, !tbaa !20
  %25 = load ptr, ptr %15, align 8, !tbaa !20
  %26 = call i32 @ffurl_open_whitelist(ptr noundef %16, ptr noundef %20, i32 noundef %21, ptr noundef %22, ptr noundef %23, ptr noundef %24, ptr noundef %25, ptr noundef null)
  store i32 %26, ptr %17, align 4, !tbaa !21
  %27 = load i32, ptr %17, align 4, !tbaa !21
  %28 = icmp slt i32 %27, 0
  br i1 %28, label %29, label %31

29:                                               ; preds = %7
  %30 = load i32, ptr %17, align 4, !tbaa !21
  store i32 %30, ptr %8, align 4
  store i32 1, ptr %18, align 4
  br label %42

31:                                               ; preds = %7
  %32 = load ptr, ptr %9, align 8, !tbaa !51
  %33 = load ptr, ptr %16, align 8, !tbaa !22
  %34 = call i32 @ffio_fdopen(ptr noundef %32, ptr noundef %33)
  store i32 %34, ptr %17, align 4, !tbaa !21
  %35 = load i32, ptr %17, align 4, !tbaa !21
  %36 = icmp slt i32 %35, 0
  br i1 %36, label %37, label %41

37:                                               ; preds = %31
  %38 = load ptr, ptr %16, align 8, !tbaa !22
  %39 = call i32 @ffurl_close(ptr noundef %38)
  %40 = load i32, ptr %17, align 4, !tbaa !21
  store i32 %40, ptr %8, align 4
  store i32 1, ptr %18, align 4
  br label %42

41:                                               ; preds = %31
  store i32 0, ptr %8, align 4
  store i32 1, ptr %18, align 4
  br label %42

42:                                               ; preds = %41, %37, %29
  call void @llvm.lifetime.end.p0(i64 4, ptr %17) #10
  call void @llvm.lifetime.end.p0(i64 8, ptr %16) #10
  %43 = load i32, ptr %8, align 4
  ret i32 %43
}