; Function Attrs: nounwind uwtable
define range(i32 -2147483648, 1) i32 @ffio_open_whitelist(ptr noundef captures(none) initializes((0, 8)) %0, ptr noundef %1, i32 noundef %2, ptr noundef readonly captures(address_is_null) %3, ptr noundef %4, ptr noundef %5, ptr noundef %6) local_unnamed_addr #3 {
  %8 = alloca ptr, align 8
  %9 = alloca ptr, align 8
  call void @llvm.lifetime.start.p0(i64 8, ptr nonnull %9) #12
  store ptr null, ptr %0, align 8, !tbaa !46
  %10 = call i32 @ffurl_open_whitelist(ptr noundef nonnull %9, ptr noundef %1, i32 noundef %2, ptr noundef %3, ptr noundef %4, ptr noundef %5, ptr noundef %6, ptr noundef null)
  %11 = icmp slt i32 %10, 0
  br i1 %11, label %19, label %12

12:                                               ; preds = %7
  %13 = load ptr, ptr %9, align 8, !tbaa !41
  %14 = call i32 @ffio_fdopen(ptr noundef nonnull %0, ptr noundef %13)
  %15 = icmp slt i32 %14, 0
  br i1 %15, label %16, label %19

16:                                               ; preds = %12
  %17 = load ptr, ptr %9, align 8, !tbaa !41
  call void @llvm.lifetime.start.p0(i64 8, ptr nonnull %8)
  store ptr %17, ptr %8, align 8, !tbaa !41
  %18 = call i32 @ffurl_closep(ptr noundef nonnull %8)
  call void @llvm.lifetime.end.p0(i64 8, ptr nonnull %8)
  br label %19

19:                                               ; preds = %12, %7, %16
  %.0 = phi i32 [ %14, %16 ], [ %10, %7 ], [ 0, %12 ]
  call void @llvm.lifetime.end.p0(i64 8, ptr nonnull %9) #12
  ret i32 %.0
}